target datalayout = "e-m:e-p270:32:32-p271:32:32-p272:64:64-i64:64-i128:128-f80:128-n8:16:32:64-S128"
target triple = "x86_64-unknown-linux-gnu"

%"class.QuantLib::RecoveryRateQuote" = type { %"class.QuantLib::Quote.base", i32, double, %"class.QuantLib::Observable" }
%"class.QuantLib::Quote.base" = type { ptr }
%"class.QuantLib::Observable" = type { ptr, %"class.std::set.0" }
%"class.std::set.0" = type { %"class.std::_Rb_tree.1" }
%"class.std::_Rb_tree.1" = type { %"struct.std::_Rb_tree<QuantLib::Observer *, QuantLib::Observer *, std::_Identity<QuantLib::Observer *>, std::less<QuantLib::Observer *>>::_Rb_tree_impl" }
%"struct.std::_Rb_tree<QuantLib::Observer *, QuantLib::Observer *, std::_Identity<QuantLib::Observer *>, std::less<QuantLib::Observer *>>::_Rb_tree_impl" = type { [8 x i8], %"struct.std::_Rb_tree_header" }
%"struct.std::_Rb_tree_header" = type { %"struct.std::_Rb_tree_node_base", i64 }
%"struct.std::_Rb_tree_node_base" = type { i32, ptr, ptr, ptr }

; Function Attrs: mustprogress uwtable
define noundef double @_ZN8QuantLib17RecoveryRateQuote8setValueEd(ptr noundef nonnull align 8 dereferenceable(24) %this, double noundef %value) #4 align 2 {
entry:
  %this.addr = alloca ptr, align 8
  %value.addr = alloca double, align 8
  %diff = alloca double, align 8
  store ptr %this, ptr %this.addr, align 8, !tbaa !3
  store double %value, ptr %value.addr, align 8, !tbaa !17
  %this1 = load ptr, ptr %this.addr, align 8
  call void @llvm.lifetime.start.p0(i64 8, ptr %diff) #18
  %0 = load double, ptr %value.addr, align 8, !tbaa !17
  %recoveryRate_ = getelementptr inbounds nuw %"class.QuantLib::RecoveryRateQuote", ptr %this1, i32 0, i32 2
  %1 = load double, ptr %recoveryRate_, align 8, !tbaa !9
  %sub = fsub double %0, %1
  store double %sub, ptr %diff, align 8, !tbaa !17
  %2 = load double, ptr %diff, align 8, !tbaa !17
  %cmp = fcmp une double %2, 0.000000e+00
  br i1 %cmp, label %if.then, label %if.end

if.then:                                          ; preds = %entry
  %3 = load double, ptr %value.addr, align 8, !tbaa !17
  %recoveryRate_2 = getelementptr inbounds nuw %"class.QuantLib::RecoveryRateQuote", ptr %this1, i32 0, i32 2
  store double %3, ptr %recoveryRate_2, align 8, !tbaa !9
  %vtable = load ptr, ptr %this1, align 8, !tbaa !7
  %vbase.offset.ptr = getelementptr i8, ptr %vtable, i64 -24
  %vbase.offset = load i64, ptr %vbase.offset.ptr, align 8
  %add.ptr = getelementptr inbounds i8, ptr %this1, i64 %vbase.offset
  call void @_ZN8QuantLib10Observable15notifyObserversEv(ptr noundef nonnull align 8 dereferenceable(56) %add.ptr)
  br label %if.end

if.end:                                           ; preds = %if.then, %entry
  %4 = load double, ptr %diff, align 8, !tbaa !17
  call void @llvm.lifetime.end.p0(i64 8, ptr %diff) #18
  ret double %4
}