; Function Attrs: mustprogress uwtable
define noundef double @_ZN8QuantLib17RecoveryRateQuote8setValueEd(ptr noundef nonnull align 8 dereferenceable(24) %this, double noundef %value) local_unnamed_addr #4 align 2 {
entry:
  %recoveryRate_ = getelementptr inbounds nuw i8, ptr %this, i64 16
  %0 = load double, ptr %recoveryRate_, align 8, !tbaa !14
  %sub = fsub double %value, %0
  %cmp = fcmp une double %sub, 0.000000e+00
  br i1 %cmp, label %if.then, label %if.end

if.then:                                          ; preds = %entry
  store double %value, ptr %recoveryRate_, align 8, !tbaa !14
  %vtable = load ptr, ptr %this, align 8, !tbaa !3
  %vbase.offset.ptr = getelementptr i8, ptr %vtable, i64 -24
  %vbase.offset = load i64, ptr %vbase.offset.ptr, align 8
  %add.ptr = getelementptr inbounds i8, ptr %this, i64 %vbase.offset
  tail call void @_ZN8QuantLib10Observable15notifyObserversEv(ptr noundef nonnull align 8 dereferenceable(56) %add.ptr)
  br label %if.end

if.end:                                           ; preds = %if.then, %entry
  ret double %sub
}